; Function Attrs: uwtable
define noundef i32 @_ZTv0_n64_N28colvarbias_restraint_centers20change_configurationERKNSt7__cxx1112basic_stringIcSt11char_traitsIcESaIcEEE(ptr noundef %0, ptr noundef nonnull align 8 dereferenceable(32) %1) unnamed_addr #3 align 2 {
  %3 = load ptr, ptr %0, align 8
  %4 = getelementptr inbounds i8, ptr %3, i64 -64
  %5 = load i64, ptr %4, align 8
  %6 = getelementptr inbounds i8, ptr %0, i64 %5
  %7 = load ptr, ptr %6, align 8
  %8 = getelementptr i8, ptr %7, i64 -32
  %9 = load i64, ptr %8, align 8
  %10 = getelementptr inbounds i8, ptr %6, i64 %9
  %11 = getelementptr inbounds i8, ptr %6, i64 8
  %12 = tail call noundef zeroext i1 @_ZN11colvarparse10get_keyvalERKNSt7__cxx1112basic_stringIcSt11char_traitsIcESaIcEEEPKcRSt6vectorI11colvarvalueSaISB_EERKSD_NS_10Parse_ModeE(ptr noundef nonnull align 8 dereferenceable(320) %10, ptr noundef nonnull align 8 dereferenceable(32) %1, ptr noundef nonnull @.str.10, ptr noundef nonnull align 8 dereferenceable(24) %11, ptr noundef nonnull align 8 dereferenceable(24) %11, i32 noundef 131078)
  br i1 %12, label %.preheader.i, label %_ZN28colvarbias_restraint_centers20change_configurationERKNSt7__cxx1112basic_stringIcSt11char_traitsIcESaIcEEE.exit

.preheader.i:                                     ; preds = %2
  %13 = load ptr, ptr %6, align 8
  %14 = getelementptr i8, ptr %13, i64 -24
  %15 = load i64, ptr %14, align 8
  %16 = getelementptr inbounds i8, ptr %6, i64 %15
  %17 = getelementptr inbounds i8, ptr %16, i64 152
  %18 = getelementptr inbounds i8, ptr %16, i64 160
  %19 = load ptr, ptr %18, align 8
  %20 = load ptr, ptr %17, align 8
  %.not.i = icmp eq ptr %19, %20
  br i1 %.not.i, label %_ZN28colvarbias_restraint_centers20change_configurationERKNSt7__cxx1112basic_stringIcSt11char_traitsIcESaIcEEE.exit, label %.lr.ph.i

.lr.ph.i:                                         ; preds = %.preheader.i, %.lr.ph.i
  %21 = phi ptr [ %38, %.lr.ph.i ], [ %20, %.preheader.i ]
  %.06.i = phi i64 [ %30, %.lr.ph.i ], [ 0, %.preheader.i ]
  %22 = load ptr, ptr %11, align 8
  %23 = getelementptr inbounds %class.colvarvalue, ptr %22, i64 %.06.i
  %sext.i = shl i64 %.06.i, 32
  %24 = ashr exact i64 %sext.i, 32
  %25 = getelementptr inbounds ptr, ptr %21, i64 %24
  %26 = load ptr, ptr %25, align 8
  %27 = getelementptr inbounds i8, ptr %26, i64 672
  tail call void @_ZN11colvarvalue4typeERKS_(ptr noundef nonnull align 8 dereferenceable(168) %23, ptr noundef nonnull align 8 dereferenceable(168) %27)
  %28 = load ptr, ptr %11, align 8
  %29 = getelementptr inbounds %class.colvarvalue, ptr %28, i64 %.06.i
  tail call void @_ZN11colvarvalue17apply_constraintsEv(ptr noundef nonnull align 8 dereferenceable(168) %29)
  %30 = add nuw i64 %.06.i, 1
  %31 = load ptr, ptr %6, align 8
  %32 = getelementptr i8, ptr %31, i64 -24
  %33 = load i64, ptr %32, align 8
  %34 = getelementptr inbounds i8, ptr %6, i64 %33
  %35 = getelementptr inbounds i8, ptr %34, i64 152
  %36 = getelementptr inbounds i8, ptr %34, i64 160
  %37 = load ptr, ptr %36, align 8
  %38 = load ptr, ptr %35, align 8
  %39 = ptrtoint ptr %37 to i64
  %40 = ptrtoint ptr %38 to i64
  %41 = sub i64 %39, %40
  %42 = ashr exact i64 %41, 3
  %43 = icmp ult i64 %30, %42
  br i1 %43, label %.lr.ph.i, label %_ZN28colvarbias_restraint_centers20change_configurationERKNSt7__cxx1112basic_stringIcSt11char_traitsIcESaIcEEE.exit, !llvm.loop !13

_ZN28colvarbias_restraint_centers20change_configurationERKNSt7__cxx1112basic_stringIcSt11char_traitsIcESaIcEEE.exit: ; preds = %.lr.ph.i, %2, %.preheader.i
  ret i32 0
}